; Function Attrs: mustprogress nofree norecurse nosync nounwind willreturn memory(read, inaccessiblemem: none) uwtable
define noundef zeroext i1 @_ZNK19OpenColorIO_v2_4dev12CPUProcessor19hasChannelCrosstalkEv(ptr nocapture noundef nonnull readonly align 8 dereferenceable(8) %this) local_unnamed_addr #8 align 2 {
entry:
  %0 = load ptr, ptr %this, align 8
  %m_hasChannelCrosstalk.i = getelementptr inbounds i8, ptr %0, i64 66
  %1 = load i8, ptr %m_hasChannelCrosstalk.i, align 2
  %2 = and i8 %1, 1
  %tobool.i = icmp ne i8 %2, 0
  ret i1 %tobool.i
}